; Function Attrs: mustprogress uwtable
define void @_ZNK6casadi7Vertcat4dispERKSt6vectorINSt7__cxx1112basic_stringIcSt11char_traitsIcESaIcEEESaIS7_EE(ptr dead_on_unwind noalias writable sret(%"class.std::__cxx11::basic_string") align 8 %0, ptr noundef nonnull align 8 dereferenceable(64) %1, ptr nocapture noundef nonnull readonly align 8 dereferenceable(24) %2) unnamed_addr #3 align 2 personality ptr @__gxx_personality_v0 {
  %4 = alloca %"class.std::__cxx11::basic_stringstream", align 8
  call void @_ZNSt7__cxx1118basic_stringstreamIcSt11char_traitsIcESaIcEEC1Ev(ptr noundef nonnull align 8 dereferenceable(128) %4)
  %5 = getelementptr inbounds i8, ptr %4, i64 16
  %6 = invoke noundef nonnull align 8 dereferenceable(8) ptr @_ZStlsISt11char_traitsIcEERSt13basic_ostreamIcT_ES5_PKc(ptr noundef nonnull align 8 dereferenceable(8) %5, ptr noundef nonnull @.str.26)
          to label %7 unwind label %.loopexit.split-lp

7:                                                ; preds = %3
  %8 = getelementptr inbounds i8, ptr %2, i64 8
  %9 = load ptr, ptr %8, align 8
  %10 = load ptr, ptr %2, align 8
  %.not.i.i.not = icmp eq ptr %9, %10
  br i1 %.not.i.i.not, label %.invoke, label %_ZNKSt6vectorINSt7__cxx1112basic_stringIcSt11char_traitsIcESaIcEEESaIS5_EE2atEm.exit

.invoke:                                          ; preds = %19, %7
  %11 = phi i64 [ 0, %7 ], [ %.0, %19 ]
  %12 = phi i64 [ 0, %7 ], [ %25, %19 ]
  invoke void (ptr, ...) @_ZSt24__throw_out_of_range_fmtPKcz(ptr noundef nonnull @.str.27, i64 noundef %11, i64 noundef %12) #19
          to label %.cont unwind label %.loopexit.split-lp

.cont:                                            ; preds = %.invoke
  unreachable

_ZNKSt6vectorINSt7__cxx1112basic_stringIcSt11char_traitsIcESaIcEEESaIS5_EE2atEm.exit: ; preds = %7
  %13 = invoke noundef nonnull align 8 dereferenceable(8) ptr @_ZStlsIcSt11char_traitsIcESaIcEERSt13basic_ostreamIT_T0_ES7_RKNSt7__cxx1112basic_stringIS4_S5_T1_EE(ptr noundef nonnull align 8 dereferenceable(8) %6, ptr noundef nonnull align 8 dereferenceable(32) %10)
          to label %.preheader unwind label %.loopexit.split-lp

.preheader:                                       ; preds = %_ZNKSt6vectorINSt7__cxx1112basic_stringIcSt11char_traitsIcESaIcEEESaIS5_EE2atEm.exit, %29
  %.0 = phi i64 [ %30, %29 ], [ 1, %_ZNKSt6vectorINSt7__cxx1112basic_stringIcSt11char_traitsIcESaIcEEESaIS5_EE2atEm.exit ]
  %14 = invoke noundef i64 @_ZNK6casadi6MXNode5n_depEv(ptr noundef nonnull align 8 dereferenceable(64) %1)
          to label %15 unwind label %.loopexit

15:                                               ; preds = %.preheader
  %16 = icmp slt i64 %.0, %14
  br i1 %16, label %17, label %32

17:                                               ; preds = %15
  %18 = invoke noundef nonnull align 8 dereferenceable(8) ptr @_ZStlsISt11char_traitsIcEERSt13basic_ostreamIcT_ES5_PKc(ptr noundef nonnull align 8 dereferenceable(8) %5, ptr noundef nonnull @.str.21)
          to label %19 unwind label %.loopexit

19:                                               ; preds = %17
  %20 = load ptr, ptr %8, align 8
  %21 = load ptr, ptr %2, align 8
  %22 = ptrtoint ptr %20 to i64
  %23 = ptrtoint ptr %21 to i64
  %24 = sub i64 %22, %23
  %25 = ashr exact i64 %24, 5
  %.not.i.i7 = icmp ugt i64 %25, %.0
  br i1 %.not.i.i7, label %26, label %.invoke

26:                                               ; preds = %19
  %27 = getelementptr inbounds %"class.std::__cxx11::basic_string", ptr %21, i64 %.0
  %28 = invoke noundef nonnull align 8 dereferenceable(8) ptr @_ZStlsIcSt11char_traitsIcESaIcEERSt13basic_ostreamIT_T0_ES7_RKNSt7__cxx1112basic_stringIS4_S5_T1_EE(ptr noundef nonnull align 8 dereferenceable(8) %18, ptr noundef nonnull align 8 dereferenceable(32) %27)
          to label %29 unwind label %.loopexit

29:                                               ; preds = %26
  %30 = add nuw nsw i64 %.0, 1
  br label %.preheader, !llvm.loop !39

.loopexit:                                        ; preds = %.preheader, %17, %26
  %lpad.loopexit = landingpad { ptr, i32 }
          cleanup
  br label %31

.loopexit.split-lp:                               ; preds = %.invoke, %3, %_ZNKSt6vectorINSt7__cxx1112basic_stringIcSt11char_traitsIcESaIcEEESaIS5_EE2atEm.exit, %32, %34
  %lpad.loopexit.split-lp = landingpad { ptr, i32 }
          cleanup
  br label %31

31:                                               ; preds = %.loopexit.split-lp, %.loopexit
  %lpad.phi = phi { ptr, i32 } [ %lpad.loopexit, %.loopexit ], [ %lpad.loopexit.split-lp, %.loopexit.split-lp ]
  call void @_ZNSt7__cxx1118basic_stringstreamIcSt11char_traitsIcESaIcEED1Ev(ptr noundef nonnull align 8 dereferenceable(128) %4) #17
  resume { ptr, i32 } %lpad.phi

32:                                               ; preds = %15
  %33 = invoke noundef nonnull align 8 dereferenceable(8) ptr @_ZStlsISt11char_traitsIcEERSt13basic_ostreamIcT_ES5_PKc(ptr noundef nonnull align 8 dereferenceable(8) %5, ptr noundef nonnull @.str.22)
          to label %34 unwind label %.loopexit.split-lp

34:                                               ; preds = %32
  invoke void @_ZNKSt7__cxx1118basic_stringstreamIcSt11char_traitsIcESaIcEE3strEv(ptr dead_on_unwind writable sret(%"class.std::__cxx11::basic_string") align 8 %0, ptr noundef nonnull align 8 dereferenceable(128) %4)
          to label %35 unwind label %.loopexit.split-lp

35:                                               ; preds = %34
  call void @_ZNSt7__cxx1118basic_stringstreamIcSt11char_traitsIcESaIcEED1Ev(ptr noundef nonnull align 8 dereferenceable(128) %4) #17
  ret void
}